; Function Attrs: nounwind sspstrong uwtable
define internal i64 @ossl_pkey_inspect(i64 noundef %0) #0 {
  %2 = tail call ptr @rb_check_typeddata(i64 noundef %0, ptr noundef nonnull @ossl_evp_pkey_type) #8
  %.not = icmp eq ptr %2, null
  br i1 %.not, label %3, label %5

3:                                                ; preds = %1
  %4 = load i64, ptr @rb_eRuntimeError, align 8, !tbaa !10
  tail call void (i64, ptr, ...) @rb_raise(i64 noundef %4, ptr noundef nonnull @.str.4) #9
  unreachable

5:                                                ; preds = %1
  %6 = tail call i32 @EVP_PKEY_get_id(ptr noundef nonnull %2) #8
  %7 = icmp eq i64 %0, 0
  %8 = and i64 %0, 7
  %9 = icmp ne i64 %8, 0
  %10 = or i1 %7, %9
  br i1 %10, label %14, label %11

11:                                               ; preds = %5
  %12 = inttoptr i64 %0 to ptr
  %13 = getelementptr inbounds nuw i8, ptr %12, i64 8
  br label %rb_class_of.exit

14:                                               ; preds = %5
  switch i64 %0, label %17 [
    i64 0, label %rb_class_of.exit
    i64 4, label %15
    i64 20, label %16
  ]

15:                                               ; preds = %14
  br label %rb_class_of.exit

16:                                               ; preds = %14
  br label %rb_class_of.exit

17:                                               ; preds = %14
  %18 = and i64 %0, 1
  %.not.i = icmp eq i64 %18, 0
  br i1 %.not.i, label %19, label %rb_class_of.exit

19:                                               ; preds = %17
  %20 = and i64 %0, 254
  %21 = icmp eq i64 %20, 12
  %spec.select.i = select i1 %21, ptr @rb_cSymbol, ptr @rb_cFloat
  br label %rb_class_of.exit

rb_class_of.exit:                                 ; preds = %11, %14, %15, %16, %17, %19
  %.0.in.i = phi ptr [ @rb_cNilClass, %15 ], [ @rb_cTrueClass, %16 ], [ %13, %11 ], [ @rb_cFalseClass, %14 ], [ @rb_cInteger, %17 ], [ %spec.select.i, %19 ]
  %.0.i = load i64, ptr %.0.in.i, align 8, !tbaa !10
  %22 = tail call i64 @rb_class_name(i64 noundef %.0.i) #8
  %23 = inttoptr i64 %0 to ptr
  %24 = tail call ptr @OBJ_nid2sn(i32 noundef %6) #8
  %25 = tail call i64 (ptr, ...) @rb_sprintf(ptr noundef nonnull @.str.57, i64 noundef %22, ptr noundef %23, ptr noundef %24) #8
  ret i64 %25
}